Certificate:
    Data:
        Version: 3 (0x2)
        Serial Number: 1 (0x1)
    Signature Algorithm: sha1WithRSAEncryption
        Issuer: C=DE, O=haw-hamburg, OU=informatik, CN=CA
        Validity
            Not Before: May 31 10:58:41 2016 GMT
            Not After : May 31 10:58:41 2018 GMT
        Subject: C=DE, O=haw-hamburg, OU=informatik, CN=fap.informatik.haw-hamburg.de
        Subject Public Key Info:
            Public Key Algorithm: rsaEncryption
                Public-Key: (2048 bit)
                Modulus:
                    00:d6:f6:64:b7:c3:e8:6c:a4:da:f1:40:ff:0b:6e:
                    dc:0c:3b:b6:64:2f:9a:ce:a4:73:1d:99:df:be:f3:
                    1c:95:5a:66:bc:a2:7e:5e:1d:65:0e:6f:0d:44:e4:
                    37:6f:e4:5c:cf:38:f0:7c:61:7b:2b:8a:9f:bc:b8:
                    07:8e:fa:45:ef:f7:ed:1e:8e:9b:1a:57:99:e4:00:
                    35:25:24:b1:86:4e:fa:4b:7a:39:19:75:17:a5:d5:
                    d5:d7:54:9e:4c:52:ee:f0:7d:7b:71:4a:d0:27:60:
                    00:93:f1:a1:02:f3:1d:79:ab:66:07:b2:42:25:17:
                    d2:ae:d8:08:2f:ae:f8:09:99:41:dd:ef:a5:46:cd:
                    ae:3a:a7:a5:8b:4a:45:94:80:d4:b0:e5:c7:ea:cd:
                    fd:cf:0c:06:43:8a:79:69:3a:a8:5c:3f:d8:24:38:
                    2c:5e:62:8f:01:48:73:82:74:d8:69:89:0b:47:20:
                    95:9c:64:5f:80:44:5b:79:b5:56:87:7a:0d:69:01:
                    90:a9:61:4e:32:ea:56:df:54:22:da:05:f1:14:8d:
                    0f:20:94:d9:ee:28:e4:bc:48:34:24:49:7e:18:85:
                    58:14:62:7e:39:65:b5:d3:20:b8:1e:8e:5a:b0:d4:
                    f7:da:d0:fa:eb:f7:24:e6:5f:af:19:81:71:ca:15:
                    5f:d3
                Exponent: 65537 (0x10001)
        X509v3 extensions:
            X509v3 Key Usage: critical
                Digital Signature, Key Encipherment
            X509v3 Basic Constraints: 
                CA:FALSE
            X509v3 Extended Key Usage: 
                TLS Web Server Authentication, TLS Web Client Authentication
            X509v3 Subject Key Identifier: 
                86:48:93:58:E7:BF:8B:79:DB:CE:40:05:89:F2:04:D2:52:5E:AC:52
            X509v3 Authority Key Identifier: 
                keyid:DE:0A:0F:D7:0A:F8:9D:FC:6A:E6:96:B9:32:F3:2E:28:53:E0:21:D4

            Authority Information Access: 
                CA Issuers - URI:http://informatik.haw-hamburg.de/tls-ca.cer

            X509v3 CRL Distribution Points: 

                Full Name:
                  URI:http://informatik.haw-hamburg.de/tls-ca.crl

            X509v3 Subject Alternative Name: 
                DNS:fap.informatik.haw-hamburg.de
    Signature Algorithm: sha1WithRSAEncryption
         66:36:ea:16:c2:71:ff:a5:a0:14:0f:3e:d9:77:a1:e7:01:02:
         7e:f3:aa:25:ef:c7:03:63:dd:5f:f1:f4:af:34:ca:97:00:75:
         92:a3:c1:94:48:ca:90:ec:f9:6e:5c:02:e2:f3:a1:1e:73:9d:
         8d:92:fc:ad:50:5f:b4:73:32:65:b1:fe:76:e4:f5:13:05:3e:
         1d:5e:c7:f9:a0:ed:e1:d5:aa:0b:b2:f1:7f:5e:f9:24:9e:4e:
         ce:51:ec:06:0a:b7:d8:75:dd:45:fb:37:0d:ab:01:bb:17:0a:
         0d:5a:6f:bf:f4:15:25:b7:34:8b:1c:20:4a:8e:42:18:13:65:
         0a:0f:2f:9e:ce:5e:c7:cf:80:18:5d:d8:4f:d2:13:6d:86:7b:
         d3:2b:16:b9:a3:e4:55:db:b8:b6:46:e4:3e:c0:8d:84:d2:d4:
         4d:3a:d6:6b:0f:ca:f1:ac:d9:67:79:dc:3a:c8:8b:10:a4:a2:
         91:b9:90:c7:5b:01:8e:53:f4:b7:b7:8a:45:55:dd:19:ac:6f:
         17:d5:1a:b7:6c:39:60:0f:a1:ea:ea:96:2c:b7:67:ed:00:ff:
         ed:f6:58:50:fe:ec:76:a7:52:34:bb:3b:62:7e:b7:5b:c9:9e:
         f3:e8:60:5d:0a:4d:3f:73:92:92:0c:a6:89:c8:3c:54:a0:ee:
         1d:57:04:94
-----BEGIN CERTIFICATE-----
MIIEUTCCAzmgAwIBAgIBATANBgkqhkiG9w0BAQUFADBFMQswCQYDVQQGEwJERTEU
MBIGA1UECgwLaGF3LWhhbWJ1cmcxEzARBgNVBAsMCmluZm9ybWF0aWsxCzAJBgNV
BAMMAkNBMB4XDTE2MDUzMTEwNTg0MVoXDTE4MDUzMTEwNTg0MVowYDELMAkGA1UE
BhMCREUxFDASBgNVBAoMC2hhdy1oYW1idXJnMRMwEQYDVQQLDAppbmZvcm1hdGlr
MSYwJAYDVQQDDB1mYXAuaW5mb3JtYXRpay5oYXctaGFtYnVyZy5kZTCCASIwDQYJ
KoZIhvcNAQEBBQADggEPADCCAQoCggEBANb2ZLfD6Gyk2vFA/wtu3Aw7tmQvms6k
cx2Z377zHJVaZryifl4dZQ5vDUTkN2/kXM848HxheyuKn7y4B476Re/37R6OmxpX
meQANSUksYZO+kt6ORl1F6XV1ddUnkxS7vB9e3FK0CdgAJPxoQLzHXmrZgeyQiUX
0q7YCC+u+AmZQd3vpUbNrjqnpYtKRZSA1LDlx+rN/c8MBkOKeWk6qFw/2CQ4LF5i
jwFIc4J02GmJC0cglZxkX4BEW3m1Vod6DWkBkKlhTjLqVt9UItoF8RSNDyCU2e4o
5LxINCRJfhiFWBRifjlltdMguB6OWrDU99rQ+uv3JOZfrxmBccoVX9MCAwEAAaOC
AS8wggErMA4GA1UdDwEB/wQEAwIFoDAJBgNVHRMEAjAAMB0GA1UdJQQWMBQGCCsG
AQUFBwMBBggrBgEFBQcDAjAdBgNVHQ4EFgQUhkiTWOe/i3nbzkAFifIE0lJerFIw
HwYDVR0jBBgwFoAU3goP1wr4nfxq5pa5MvMuKFPgIdQwRwYIKwYBBQUHAQEEOzA5
MDcGCCsGAQUFBzAChitodHRwOi8vaW5mb3JtYXRpay5oYXctaGFtYnVyZy5kZS90
bHMtY2EuY2VyMDwGA1UdHwQ1MDMwMaAvoC2GK2h0dHA6Ly9pbmZvcm1hdGlrLmhh
dy1oYW1idXJnLmRlL3Rscy1jYS5jcmwwKAYDVR0RBCEwH4IdZmFwLmluZm9ybWF0
aWsuaGF3LWhhbWJ1cmcuZGUwDQYJKoZIhvcNAQEFBQADggEBAGY26hbCcf+loBQP
Ptl3oecBAn7zqiXvxwNj3V/x9K80ypcAdZKjwZRIypDs+W5cAuLzoR5znY2S/K1Q
X7RzMmWx/nbk9RMFPh1ex/mg7eHVqguy8X9e+SSeTs5R7AYKt9h13UX7Nw2rAbsX
Cg1ab7/0FSW3NIscIEqOQhgTZQoPL57OXsfPgBhd2E/SE22Ge9MrFrmj5FXbuLZG
5D7AjYTS1E061msPyvGs2Wd53DrIixCkopG5kMdbAY5T9Le3ikVV3RmsbxfVGrds
OWAPoerqliy3Z+0A/+32WFD+7HanUjS7O2J+t1vJnvPoYF0KTT9zkpIMponIPFSg
7h1XBJQ=
-----END CERTIFICATE-----
