Certificate:
    Data:
        Version: 3 (0x2)
        Serial Number: 1 (0x1)
    Signature Algorithm: sha1WithRSAEncryption
        Issuer: C=DE, O=haw-hamburg, OU=informatik, CN=CA
        Validity
            Not Before: May 31 11:07:07 2016 GMT
            Not After : May 31 11:07:07 2018 GMT
        Subject: C=DE, O=haw-hamburg, OU=informatik, CN=fap.informatik.haw-hamburg.de
        Subject Public Key Info:
            Public Key Algorithm: rsaEncryption
                Public-Key: (2048 bit)
                Modulus:
                    00:d6:b9:4d:92:5e:f1:39:4f:91:04:ae:cc:d6:16:
                    4a:0a:0e:88:97:c1:cd:e1:e7:39:6d:a2:5b:b4:e6:
                    45:54:71:6e:1e:2b:86:06:9f:97:74:bc:48:12:13:
                    01:00:c2:06:52:21:b1:11:c7:e4:f6:98:dd:8b:9d:
                    96:3b:54:32:e4:68:61:46:9b:0c:ff:45:fc:18:44:
                    b3:93:5f:68:a7:55:a3:c9:08:5d:d9:5b:3e:bf:6d:
                    77:2c:a4:96:2c:33:68:72:cf:0e:af:78:45:ac:c7:
                    da:59:fb:91:d9:94:78:89:fb:b1:3a:a8:35:39:60:
                    c1:a4:cc:1d:09:17:87:08:65:bd:c2:cc:cb:5b:ff:
                    f0:b8:11:90:b7:75:ba:26:76:fe:5a:d2:bd:08:17:
                    1d:1f:9f:d5:fc:1e:2f:33:4d:19:e9:51:91:96:76:
                    d4:71:cb:54:e1:21:c6:b9:ea:0b:51:ef:4b:17:41:
                    31:cb:54:d3:ac:39:d8:6f:55:01:22:b2:24:90:b5:
                    e3:46:1f:f7:8e:cd:b3:15:9b:ea:2e:aa:06:34:7c:
                    84:1f:70:f6:56:ba:75:3a:67:fc:c6:20:f8:4f:b6:
                    c0:b8:fa:88:82:f9:2f:9c:81:8d:4d:54:84:23:52:
                    46:27:3a:5b:ed:45:9d:c0:30:3d:b5:68:83:de:d2:
                    c1:99
                Exponent: 65537 (0x10001)
        X509v3 extensions:
            X509v3 Key Usage: critical
                Digital Signature, Key Encipherment
            X509v3 Basic Constraints: 
                CA:FALSE
            X509v3 Extended Key Usage: 
                TLS Web Server Authentication, TLS Web Client Authentication
            X509v3 Subject Key Identifier: 
                02:0B:6F:F5:AE:9D:EC:C6:07:44:4F:5E:3D:98:19:64:B6:26:DA:2C
            X509v3 Authority Key Identifier: 
                keyid:80:73:BE:A8:8B:8B:F5:EC:39:2C:05:B0:BC:5D:C7:9C:A4:4D:D2:C4

            Authority Information Access: 
                CA Issuers - URI:http://informatik.haw-hamburg.de/tls-ca.cer

            X509v3 CRL Distribution Points: 

                Full Name:
                  URI:http://informatik.haw-hamburg.de/tls-ca.crl

            X509v3 Subject Alternative Name: 
                DNS:fap.informatik.haw-hamburg.de
    Signature Algorithm: sha1WithRSAEncryption
         19:6e:f1:df:69:92:7d:0c:2b:95:1f:58:af:9a:95:6f:0a:8a:
         e6:09:76:19:8c:c0:07:6a:1b:56:50:6c:f8:a8:12:12:57:80:
         7d:7f:6e:72:48:ba:67:9f:aa:38:ab:5f:6e:ac:a8:72:30:0a:
         0a:cf:46:a1:27:14:22:58:c0:72:85:0a:e3:82:b2:e5:83:93:
         1c:51:72:07:92:68:d5:eb:da:be:6f:47:bb:1f:d7:92:00:b9:
         8a:19:28:2e:bc:d4:ad:d1:0a:6e:c9:26:78:87:8d:40:ec:3c:
         1c:0c:b1:6d:6c:c3:27:14:1a:ab:78:cc:2e:9c:15:66:c1:14:
         ea:59:08:de:55:20:d4:58:57:53:8d:ac:81:24:ca:08:a2:4a:
         76:26:20:a9:40:78:7d:02:1d:8a:25:5c:0a:56:43:5c:fa:3e:
         ba:b3:60:90:76:bc:6a:7b:cf:f2:c6:ba:db:7f:d5:20:fb:d0:
         96:37:8a:a1:4d:a4:21:f4:ea:cb:5a:4a:75:ea:2e:15:65:76:
         59:ae:de:56:bd:04:3e:77:3d:5f:bb:7b:55:32:34:96:1b:a0:
         15:08:e6:b6:6b:60:19:4b:b2:1b:a3:c1:72:2b:cb:54:7a:d9:
         8f:e3:8f:96:99:80:b2:83:9f:6c:d0:24:fc:e7:6b:ac:f2:45:
         e7:0a:0e:39
-----BEGIN CERTIFICATE-----
MIIEUTCCAzmgAwIBAgIBATANBgkqhkiG9w0BAQUFADBFMQswCQYDVQQGEwJERTEU
MBIGA1UECgwLaGF3LWhhbWJ1cmcxEzARBgNVBAsMCmluZm9ybWF0aWsxCzAJBgNV
BAMMAkNBMB4XDTE2MDUzMTExMDcwN1oXDTE4MDUzMTExMDcwN1owYDELMAkGA1UE
BhMCREUxFDASBgNVBAoMC2hhdy1oYW1idXJnMRMwEQYDVQQLDAppbmZvcm1hdGlr
MSYwJAYDVQQDDB1mYXAuaW5mb3JtYXRpay5oYXctaGFtYnVyZy5kZTCCASIwDQYJ
KoZIhvcNAQEBBQADggEPADCCAQoCggEBANa5TZJe8TlPkQSuzNYWSgoOiJfBzeHn
OW2iW7TmRVRxbh4rhgafl3S8SBITAQDCBlIhsRHH5PaY3YudljtUMuRoYUabDP9F
/BhEs5NfaKdVo8kIXdlbPr9tdyykliwzaHLPDq94RazH2ln7kdmUeIn7sTqoNTlg
waTMHQkXhwhlvcLMy1v/8LgRkLd1uiZ2/lrSvQgXHR+f1fweLzNNGelRkZZ21HHL
VOEhxrnqC1HvSxdBMctU06w52G9VASKyJJC140Yf947NsxWb6i6qBjR8hB9w9la6
dTpn/MYg+E+2wLj6iIL5L5yBjU1UhCNSRic6W+1FncAwPbVog97SwZkCAwEAAaOC
AS8wggErMA4GA1UdDwEB/wQEAwIFoDAJBgNVHRMEAjAAMB0GA1UdJQQWMBQGCCsG
AQUFBwMBBggrBgEFBQcDAjAdBgNVHQ4EFgQUAgtv9a6d7MYHRE9ePZgZZLYm2iww
HwYDVR0jBBgwFoAUgHO+qIuL9ew5LAWwvF3HnKRN0sQwRwYIKwYBBQUHAQEEOzA5
MDcGCCsGAQUFBzAChitodHRwOi8vaW5mb3JtYXRpay5oYXctaGFtYnVyZy5kZS90
bHMtY2EuY2VyMDwGA1UdHwQ1MDMwMaAvoC2GK2h0dHA6Ly9pbmZvcm1hdGlrLmhh
dy1oYW1idXJnLmRlL3Rscy1jYS5jcmwwKAYDVR0RBCEwH4IdZmFwLmluZm9ybWF0
aWsuaGF3LWhhbWJ1cmcuZGUwDQYJKoZIhvcNAQEFBQADggEBABlu8d9pkn0MK5Uf
WK+alW8KiuYJdhmMwAdqG1ZQbPioEhJXgH1/bnJIumefqjirX26sqHIwCgrPRqEn
FCJYwHKFCuOCsuWDkxxRcgeSaNXr2r5vR7sf15IAuYoZKC681K3RCm7JJniHjUDs
PBwMsW1swycUGqt4zC6cFWbBFOpZCN5VINRYV1ONrIEkygiiSnYmIKlAeH0CHYol
XApWQ1z6PrqzYJB2vGp7z/LGutt/1SD70JY3iqFNpCH06staSnXqLhVldlmu3la9
BD53PV+7e1UyNJYboBUI5rZrYBlLshujwXIry1R62Y/jj5aZgLKDn2zQJPzna6zy
RecKDjk=
-----END CERTIFICATE-----
