Certificate:
    Data:
        Version: 3 (0x2)
        Serial Number: 2 (0x2)
    Signature Algorithm: sha1WithRSAEncryption
        Issuer: C=DE, O=haw-hamburg, CN=CA
        Validity
            Not Before: May 31 11:05:11 2016 GMT
            Not After : May 31 11:05:11 2026 GMT
        Subject: C=DE, O=haw-hamburg, OU=informatik, CN=CA
        Subject Public Key Info:
            Public Key Algorithm: rsaEncryption
                Public-Key: (2048 bit)
                Modulus:
                    00:c6:65:d8:87:9e:0c:34:9a:0d:b3:7a:05:70:1e:
                    c7:ee:17:15:29:ba:43:56:6a:b6:23:67:18:82:61:
                    ce:a0:a7:58:cf:94:06:04:c1:55:ed:59:9a:fa:46:
                    21:3e:8e:ac:c6:84:f9:c1:f4:e6:fb:88:c2:3a:2d:
                    6d:39:7a:88:10:9d:2d:0c:54:c0:10:9d:af:a9:60:
                    e3:13:01:8a:b7:cb:27:49:67:54:15:d7:b5:0f:9e:
                    02:4e:b4:43:0d:36:b8:0b:4b:56:55:14:2c:95:e7:
                    dc:28:37:21:7d:f6:5d:56:67:44:42:a1:0d:b1:0c:
                    d9:ee:ea:69:13:fb:8a:66:73:2c:59:79:fa:17:f9:
                    44:fc:81:25:50:b4:05:2c:c4:de:c0:f6:d7:17:7b:
                    d0:a4:15:61:b2:bd:d9:09:cf:26:98:e9:81:aa:ff:
                    e7:b3:c7:50:22:02:ea:bd:30:16:93:0f:f6:f3:f0:
                    96:9c:f1:43:66:75:87:6b:2d:e4:4e:2a:37:51:73:
                    92:bf:44:62:72:60:44:b8:88:94:3a:b6:60:e2:17:
                    34:62:e0:bb:c0:e1:3c:2f:51:0a:9d:28:63:6a:ae:
                    8c:52:bc:c2:60:f9:54:ce:73:4b:9b:e4:0b:e7:75:
                    b7:a1:3b:72:ca:51:48:28:21:21:52:c9:b3:ea:ba:
                    3e:e5
                Exponent: 65537 (0x10001)
        X509v3 extensions:
            X509v3 Key Usage: critical
                Certificate Sign, CRL Sign
            X509v3 Basic Constraints: critical
                CA:TRUE, pathlen:0
            X509v3 Subject Key Identifier: 
                80:73:BE:A8:8B:8B:F5:EC:39:2C:05:B0:BC:5D:C7:9C:A4:4D:D2:C4
            X509v3 Authority Key Identifier: 
                keyid:0E:E6:02:D6:9F:C7:21:44:66:80:4C:A0:14:10:04:1F:BD:2B:88:69

            Authority Information Access: 
                CA Issuers - URI:http://haw-hamburg.de/root-ca.cer

            X509v3 CRL Distribution Points: 

                Full Name:
                  URI:http://haw-hamburg.de/root-ca.crl

    Signature Algorithm: sha1WithRSAEncryption
         77:65:0d:12:43:fd:2f:3b:a5:a7:44:6e:d0:5e:44:f8:1b:17:
         41:75:af:03:a3:65:2e:8e:6e:05:c1:1d:a8:71:e9:13:a8:a1:
         ce:2c:d7:47:99:dd:85:30:9e:1b:cb:9c:81:7e:c4:10:ee:fd:
         1c:0a:1b:d3:2e:31:0c:b5:98:92:4c:71:f7:49:8a:04:b3:24:
         c5:3b:8e:24:f0:d4:a2:03:30:ad:62:a9:97:3f:d6:e4:3b:8a:
         eb:95:12:16:21:f7:4a:db:5b:a9:57:57:85:5e:ee:fb:a1:67:
         cd:13:49:29:01:24:34:d8:37:62:a2:b4:c3:df:a8:46:ee:22:
         56:ac:fe:13:b2:75:bf:4b:06:aa:9b:0d:2a:8a:2d:1d:d8:04:
         a4:49:e5:d7:11:8e:2b:1d:bb:ef:30:fd:03:80:aa:d7:35:67:
         c9:bd:a6:03:51:9e:78:e3:1a:53:96:14:34:34:e7:11:59:7f:
         8a:bb:e1:a4:fe:a5:ce:89:11:9f:ad:56:17:be:33:b0:8e:da:
         9e:f1:c7:9f:32:91:d4:8e:4a:41:cc:fa:8b:d0:a3:0a:86:05:
         e8:46:52:fc:88:f5:d2:53:f4:ed:b5:8e:38:48:66:8c:80:c2:
         b0:b0:f3:0f:96:64:ee:50:c0:33:03:8a:3d:3d:df:6d:22:5e:
         05:96:58:8b
-----BEGIN CERTIFICATE-----
MIIDyzCCArOgAwIBAgIBAjANBgkqhkiG9w0BAQUFADAwMQswCQYDVQQGEwJERTEU
MBIGA1UECgwLaGF3LWhhbWJ1cmcxCzAJBgNVBAMMAkNBMB4XDTE2MDUzMTExMDUx
MVoXDTI2MDUzMTExMDUxMVowRTELMAkGA1UEBhMCREUxFDASBgNVBAoMC2hhdy1o
YW1idXJnMRMwEQYDVQQLDAppbmZvcm1hdGlrMQswCQYDVQQDDAJDQTCCASIwDQYJ
KoZIhvcNAQEBBQADggEPADCCAQoCggEBAMZl2IeeDDSaDbN6BXAex+4XFSm6Q1Zq
tiNnGIJhzqCnWM+UBgTBVe1ZmvpGIT6OrMaE+cH05vuIwjotbTl6iBCdLQxUwBCd
r6lg4xMBirfLJ0lnVBXXtQ+eAk60Qw02uAtLVlUULJXn3Cg3IX32XVZnREKhDbEM
2e7qaRP7imZzLFl5+hf5RPyBJVC0BSzE3sD21xd70KQVYbK92QnPJpjpgar/57PH
UCIC6r0wFpMP9vPwlpzxQ2Z1h2st5E4qN1Fzkr9EYnJgRLiIlDq2YOIXNGLgu8Dh
PC9RCp0oY2qujFK8wmD5VM5zS5vkC+d1t6E7cspRSCghIVLJs+q6PuUCAwEAAaOB
2jCB1zAOBgNVHQ8BAf8EBAMCAQYwEgYDVR0TAQH/BAgwBgEB/wIBADAdBgNVHQ4E
FgQUgHO+qIuL9ew5LAWwvF3HnKRN0sQwHwYDVR0jBBgwFoAUDuYC1p/HIURmgEyg
FBAEH70riGkwPQYIKwYBBQUHAQEEMTAvMC0GCCsGAQUFBzAChiFodHRwOi8vaGF3
LWhhbWJ1cmcuZGUvcm9vdC1jYS5jZXIwMgYDVR0fBCswKTAnoCWgI4YhaHR0cDov
L2hhdy1oYW1idXJnLmRlL3Jvb3QtY2EuY3JsMA0GCSqGSIb3DQEBBQUAA4IBAQB3
ZQ0SQ/0vO6WnRG7QXkT4GxdBda8Do2Uujm4FwR2ocekTqKHOLNdHmd2FMJ4by5yB
fsQQ7v0cChvTLjEMtZiSTHH3SYoEsyTFO44k8NSiAzCtYqmXP9bkO4rrlRIWIfdK
21upV1eFXu77oWfNE0kpASQ02DdiorTD36hG7iJWrP4TsnW/Swaqmw0qii0d2ASk
SeXXEY4rHbvvMP0DgKrXNWfJvaYDUZ544xpTlhQ0NOcRWX+Ku+Gk/qXOiRGfrVYX
vjOwjtqe8cefMpHUjkpBzPqL0KMKhgXoRlL8iPXSU/TttY44SGaMgMKwsPMPlmTu
UMAzA4o9Pd9tIl4FlliL
-----END CERTIFICATE-----
Certificate:
    Data:
        Version: 3 (0x2)
        Serial Number: 1 (0x1)
    Signature Algorithm: sha1WithRSAEncryption
        Issuer: C=DE, O=haw-hamburg, CN=CA
        Validity
            Not Before: May 31 11:04:29 2016 GMT
            Not After : Dec 31 23:59:59 2030 GMT
        Subject: C=DE, O=haw-hamburg, CN=CA
        Subject Public Key Info:
            Public Key Algorithm: rsaEncryption
                Public-Key: (2048 bit)
                Modulus:
                    00:b3:10:a2:72:b8:7a:de:73:13:01:e8:cf:ee:33:
                    75:53:d3:7c:9e:c2:59:78:5b:bd:70:6f:a7:af:3f:
                    46:43:0d:a1:db:59:ff:73:a5:84:47:aa:df:9e:7e:
                    43:e3:46:c1:8e:f6:f4:16:7b:50:34:79:2d:cd:e1:
                    92:3a:e8:45:5b:cf:e9:b1:36:8f:4e:41:a9:bf:8a:
                    e5:a5:6c:47:15:66:73:65:c3:f4:8e:88:59:2e:34:
                    49:81:84:9f:7d:e9:c5:92:f3:e9:95:3f:46:49:2d:
                    7d:4c:9f:ee:bb:c5:16:01:83:3a:17:f9:50:47:2e:
                    28:7f:8e:ac:23:ca:8c:2d:17:51:fb:c5:81:a2:8d:
                    3c:0d:d3:a9:b1:1a:c1:43:bb:9c:19:77:53:6a:6e:
                    99:19:0f:89:34:86:9c:1a:e8:24:fe:b4:31:77:91:
                    c0:82:43:9e:e3:31:f5:6a:32:d8:17:e1:24:eb:9b:
                    df:73:18:7f:01:8e:34:dd:e2:7c:50:d8:d7:80:06:
                    aa:29:6a:e6:bb:e6:5b:36:59:ed:57:bd:a2:fb:b6:
                    5c:33:cc:95:60:c1:5a:b4:14:13:b2:82:dc:f7:fb:
                    30:0d:3a:ff:23:1b:68:a8:c5:50:4d:52:6e:05:2e:
                    5b:4b:56:3b:be:ba:1c:5f:c7:d7:5f:03:0c:23:f6:
                    ce:25
                Exponent: 65537 (0x10001)
        X509v3 extensions:
            X509v3 Key Usage: critical
                Certificate Sign, CRL Sign
            X509v3 Basic Constraints: critical
                CA:TRUE
            X509v3 Subject Key Identifier: 
                0E:E6:02:D6:9F:C7:21:44:66:80:4C:A0:14:10:04:1F:BD:2B:88:69
            X509v3 Authority Key Identifier: 
                keyid:0E:E6:02:D6:9F:C7:21:44:66:80:4C:A0:14:10:04:1F:BD:2B:88:69

    Signature Algorithm: sha1WithRSAEncryption
         11:71:25:46:86:15:00:f1:44:c0:4e:05:3b:79:8f:9e:8a:f1:
         30:54:27:b6:cd:6e:ca:82:9c:d0:39:9a:a3:eb:65:d5:3e:3f:
         b1:a8:79:64:c9:cf:5e:21:dd:eb:c5:0b:0f:1d:e7:ad:ac:15:
         da:34:12:df:37:78:2e:b9:f6:33:bb:de:c3:bd:18:e0:20:c0:
         c5:ca:fb:47:6a:0a:e6:57:87:66:e6:de:00:3a:ae:69:fe:90:
         8f:5a:bc:16:5f:0c:91:99:d3:dc:0d:c7:c7:ed:3f:7d:a5:64:
         bd:6e:af:7b:02:9f:26:ff:42:65:64:02:6f:0f:9a:22:94:67:
         dd:cc:8c:af:3c:62:5d:3d:a9:9a:02:bb:74:10:dc:ac:66:58:
         83:61:82:c1:2b:cb:3c:2d:09:53:79:64:08:c7:cd:c5:e6:3e:
         fb:13:01:a0:0b:9f:78:c0:f0:28:a9:25:ca:a4:ab:2e:bd:be:
         9b:aa:74:27:52:7c:c8:33:fc:68:7a:58:f7:2d:b8:f1:a0:77:
         1e:5d:96:6b:0a:4c:5f:d0:55:0f:17:ef:d8:05:54:a8:45:bf:
         e7:3d:76:8a:65:d4:a2:01:e7:0e:7f:7c:5b:6b:b1:1d:2d:71:
         fc:d3:71:fc:6f:b9:83:bc:e3:98:a8:f5:4a:b6:50:47:f1:85:
         e1:91:cb:c2
-----BEGIN CERTIFICATE-----
MIIDQDCCAiigAwIBAgIBATANBgkqhkiG9w0BAQUFADAwMQswCQYDVQQGEwJERTEU
MBIGA1UECgwLaGF3LWhhbWJ1cmcxCzAJBgNVBAMMAkNBMCAXDTE2MDUzMTExMDQy
OVoYDzIwMzAxMjMxMjM1OTU5WjAwMQswCQYDVQQGEwJERTEUMBIGA1UECgwLaGF3
LWhhbWJ1cmcxCzAJBgNVBAMMAkNBMIIBIjANBgkqhkiG9w0BAQEFAAOCAQ8AMIIB
CgKCAQEAsxCicrh63nMTAejP7jN1U9N8nsJZeFu9cG+nrz9GQw2h21n/c6WER6rf
nn5D40bBjvb0FntQNHktzeGSOuhFW8/psTaPTkGpv4rlpWxHFWZzZcP0johZLjRJ
gYSffenFkvPplT9GSS19TJ/uu8UWAYM6F/lQRy4of46sI8qMLRdR+8WBoo08DdOp
sRrBQ7ucGXdTam6ZGQ+JNIacGugk/rQxd5HAgkOe4zH1ajLYF+Ek65vfcxh/AY40
3eJ8UNjXgAaqKWrmu+ZbNlntV72i+7ZcM8yVYMFatBQTsoLc9/swDTr/IxtoqMVQ
TVJuBS5bS1Y7vrocX8fXXwMMI/bOJQIDAQABo2MwYTAOBgNVHQ8BAf8EBAMCAQYw
DwYDVR0TAQH/BAUwAwEB/zAdBgNVHQ4EFgQUDuYC1p/HIURmgEygFBAEH70riGkw
HwYDVR0jBBgwFoAUDuYC1p/HIURmgEygFBAEH70riGkwDQYJKoZIhvcNAQEFBQAD
ggEBABFxJUaGFQDxRMBOBTt5j56K8TBUJ7bNbsqCnNA5mqPrZdU+P7GoeWTJz14h
3evFCw8d562sFdo0Et83eC659jO73sO9GOAgwMXK+0dqCuZXh2bm3gA6rmn+kI9a
vBZfDJGZ09wNx8ftP32lZL1ur3sCnyb/QmVkAm8PmiKUZ93MjK88Yl09qZoCu3QQ
3KxmWINhgsEryzwtCVN5ZAjHzcXmPvsTAaALn3jA8CipJcqkqy69vpuqdCdSfMgz
/Gh6WPctuPGgdx5dlmsKTF/QVQ8X79gFVKhFv+c9dopl1KIB5w5/fFtrsR0tcfzT
cfxvuYO845io9Uq2UEfxheGRy8I=
-----END CERTIFICATE-----
