Certificate:
    Data:
        Version: 3 (0x2)
        Serial Number: 1 (0x1)
    Signature Algorithm: sha1WithRSAEncryption
        Issuer: C=DE, O=haw-hamburg, CN=CA
        Validity
            Not Before: May 31 11:04:29 2016 GMT
            Not After : Dec 31 23:59:59 2030 GMT
        Subject: C=DE, O=haw-hamburg, CN=CA
        Subject Public Key Info:
            Public Key Algorithm: rsaEncryption
                Public-Key: (2048 bit)
                Modulus:
                    00:b3:10:a2:72:b8:7a:de:73:13:01:e8:cf:ee:33:
                    75:53:d3:7c:9e:c2:59:78:5b:bd:70:6f:a7:af:3f:
                    46:43:0d:a1:db:59:ff:73:a5:84:47:aa:df:9e:7e:
                    43:e3:46:c1:8e:f6:f4:16:7b:50:34:79:2d:cd:e1:
                    92:3a:e8:45:5b:cf:e9:b1:36:8f:4e:41:a9:bf:8a:
                    e5:a5:6c:47:15:66:73:65:c3:f4:8e:88:59:2e:34:
                    49:81:84:9f:7d:e9:c5:92:f3:e9:95:3f:46:49:2d:
                    7d:4c:9f:ee:bb:c5:16:01:83:3a:17:f9:50:47:2e:
                    28:7f:8e:ac:23:ca:8c:2d:17:51:fb:c5:81:a2:8d:
                    3c:0d:d3:a9:b1:1a:c1:43:bb:9c:19:77:53:6a:6e:
                    99:19:0f:89:34:86:9c:1a:e8:24:fe:b4:31:77:91:
                    c0:82:43:9e:e3:31:f5:6a:32:d8:17:e1:24:eb:9b:
                    df:73:18:7f:01:8e:34:dd:e2:7c:50:d8:d7:80:06:
                    aa:29:6a:e6:bb:e6:5b:36:59:ed:57:bd:a2:fb:b6:
                    5c:33:cc:95:60:c1:5a:b4:14:13:b2:82:dc:f7:fb:
                    30:0d:3a:ff:23:1b:68:a8:c5:50:4d:52:6e:05:2e:
                    5b:4b:56:3b:be:ba:1c:5f:c7:d7:5f:03:0c:23:f6:
                    ce:25
                Exponent: 65537 (0x10001)
        X509v3 extensions:
            X509v3 Key Usage: critical
                Certificate Sign, CRL Sign
            X509v3 Basic Constraints: critical
                CA:TRUE
            X509v3 Subject Key Identifier: 
                0E:E6:02:D6:9F:C7:21:44:66:80:4C:A0:14:10:04:1F:BD:2B:88:69
            X509v3 Authority Key Identifier: 
                keyid:0E:E6:02:D6:9F:C7:21:44:66:80:4C:A0:14:10:04:1F:BD:2B:88:69

    Signature Algorithm: sha1WithRSAEncryption
         11:71:25:46:86:15:00:f1:44:c0:4e:05:3b:79:8f:9e:8a:f1:
         30:54:27:b6:cd:6e:ca:82:9c:d0:39:9a:a3:eb:65:d5:3e:3f:
         b1:a8:79:64:c9:cf:5e:21:dd:eb:c5:0b:0f:1d:e7:ad:ac:15:
         da:34:12:df:37:78:2e:b9:f6:33:bb:de:c3:bd:18:e0:20:c0:
         c5:ca:fb:47:6a:0a:e6:57:87:66:e6:de:00:3a:ae:69:fe:90:
         8f:5a:bc:16:5f:0c:91:99:d3:dc:0d:c7:c7:ed:3f:7d:a5:64:
         bd:6e:af:7b:02:9f:26:ff:42:65:64:02:6f:0f:9a:22:94:67:
         dd:cc:8c:af:3c:62:5d:3d:a9:9a:02:bb:74:10:dc:ac:66:58:
         83:61:82:c1:2b:cb:3c:2d:09:53:79:64:08:c7:cd:c5:e6:3e:
         fb:13:01:a0:0b:9f:78:c0:f0:28:a9:25:ca:a4:ab:2e:bd:be:
         9b:aa:74:27:52:7c:c8:33:fc:68:7a:58:f7:2d:b8:f1:a0:77:
         1e:5d:96:6b:0a:4c:5f:d0:55:0f:17:ef:d8:05:54:a8:45:bf:
         e7:3d:76:8a:65:d4:a2:01:e7:0e:7f:7c:5b:6b:b1:1d:2d:71:
         fc:d3:71:fc:6f:b9:83:bc:e3:98:a8:f5:4a:b6:50:47:f1:85:
         e1:91:cb:c2
-----BEGIN CERTIFICATE-----
MIIDQDCCAiigAwIBAgIBATANBgkqhkiG9w0BAQUFADAwMQswCQYDVQQGEwJERTEU
MBIGA1UECgwLaGF3LWhhbWJ1cmcxCzAJBgNVBAMMAkNBMCAXDTE2MDUzMTExMDQy
OVoYDzIwMzAxMjMxMjM1OTU5WjAwMQswCQYDVQQGEwJERTEUMBIGA1UECgwLaGF3
LWhhbWJ1cmcxCzAJBgNVBAMMAkNBMIIBIjANBgkqhkiG9w0BAQEFAAOCAQ8AMIIB
CgKCAQEAsxCicrh63nMTAejP7jN1U9N8nsJZeFu9cG+nrz9GQw2h21n/c6WER6rf
nn5D40bBjvb0FntQNHktzeGSOuhFW8/psTaPTkGpv4rlpWxHFWZzZcP0johZLjRJ
gYSffenFkvPplT9GSS19TJ/uu8UWAYM6F/lQRy4of46sI8qMLRdR+8WBoo08DdOp
sRrBQ7ucGXdTam6ZGQ+JNIacGugk/rQxd5HAgkOe4zH1ajLYF+Ek65vfcxh/AY40
3eJ8UNjXgAaqKWrmu+ZbNlntV72i+7ZcM8yVYMFatBQTsoLc9/swDTr/IxtoqMVQ
TVJuBS5bS1Y7vrocX8fXXwMMI/bOJQIDAQABo2MwYTAOBgNVHQ8BAf8EBAMCAQYw
DwYDVR0TAQH/BAUwAwEB/zAdBgNVHQ4EFgQUDuYC1p/HIURmgEygFBAEH70riGkw
HwYDVR0jBBgwFoAUDuYC1p/HIURmgEygFBAEH70riGkwDQYJKoZIhvcNAQEFBQAD
ggEBABFxJUaGFQDxRMBOBTt5j56K8TBUJ7bNbsqCnNA5mqPrZdU+P7GoeWTJz14h
3evFCw8d562sFdo0Et83eC659jO73sO9GOAgwMXK+0dqCuZXh2bm3gA6rmn+kI9a
vBZfDJGZ09wNx8ftP32lZL1ur3sCnyb/QmVkAm8PmiKUZ93MjK88Yl09qZoCu3QQ
3KxmWINhgsEryzwtCVN5ZAjHzcXmPvsTAaALn3jA8CipJcqkqy69vpuqdCdSfMgz
/Gh6WPctuPGgdx5dlmsKTF/QVQ8X79gFVKhFv+c9dopl1KIB5w5/fFtrsR0tcfzT
cfxvuYO845io9Uq2UEfxheGRy8I=
-----END CERTIFICATE-----
